; Function Attrs: mustprogress uwtable
define void @_ZN18DecorateBasePlugin11endDecorateEPK7QActionR9MeshModelPK17RichParameterListP6GLArea(ptr noundef nonnull align 8 dereferenceable(192) %0, ptr noundef %1, ptr noundef nonnull align 8 dereferenceable(1288) %2, ptr nocapture noundef readnone %3, ptr nocapture noundef readnone %4) unnamed_addr #9 align 2 {
  %6 = alloca ptr, align 8
  %7 = alloca ptr, align 8
  %8 = alloca ptr, align 8
  %9 = getelementptr inbounds i8, ptr %0, i64 16
  %10 = load ptr, ptr %9, align 8
  %11 = getelementptr inbounds i8, ptr %10, i64 144
  %12 = load ptr, ptr %11, align 8
  %13 = tail call noundef i32 %12(ptr noundef nonnull align 8 dereferenceable(32) %9, ptr noundef %1)
  %cond = icmp eq i32 %13, 8
  br i1 %cond, label %14, label %28

14:                                               ; preds = %5
  %15 = getelementptr inbounds i8, ptr %0, i64 184
  store ptr %2, ptr %6, align 8
  %16 = call noundef nonnull align 8 dereferenceable(8) ptr @_ZN4QMapIP9MeshModelP16QGLShaderProgramEixERKS1_(ptr noundef nonnull align 8 dereferenceable(8) %15, ptr noundef nonnull align 8 dereferenceable(8) %6)
  %17 = load ptr, ptr %16, align 8
  %.not = icmp eq ptr %17, null
  br i1 %.not, label %28, label %18

18:                                               ; preds = %14
  store ptr %2, ptr %7, align 8
  %19 = call noundef nonnull align 8 dereferenceable(8) ptr @_ZN4QMapIP9MeshModelP16QGLShaderProgramEixERKS1_(ptr noundef nonnull align 8 dereferenceable(8) %15, ptr noundef nonnull align 8 dereferenceable(8) %7)
  %20 = load ptr, ptr %19, align 8
  %21 = icmp eq ptr %20, null
  br i1 %21, label %26, label %22

22:                                               ; preds = %18
  %23 = load ptr, ptr %20, align 8
  %24 = getelementptr inbounds i8, ptr %23, i64 32
  %25 = load ptr, ptr %24, align 8
  call void %25(ptr noundef nonnull align 8 dereferenceable(16) %20) #27
  br label %26

26:                                               ; preds = %22, %18
  store ptr %2, ptr %8, align 8
  %27 = call noundef nonnull align 8 dereferenceable(8) ptr @_ZN4QMapIP9MeshModelP16QGLShaderProgramEixERKS1_(ptr noundef nonnull align 8 dereferenceable(8) %15, ptr noundef nonnull align 8 dereferenceable(8) %8)
  store ptr null, ptr %27, align 8
  br label %28

28:                                               ; preds = %5, %14, %26
  ret void
}